target datalayout = "e-m:e-p270:32:32-p271:32:32-p272:64:64-i64:64-i128:128-f80:128-n8:16:32:64-S128"
target triple = "x86_64-pc-linux-gnu"

%"class.algebraic_numbers::manager" = type <{ ptr, ptr, i8, [7 x i8] }>
%"struct.algebraic_numbers::manager::imp" = type { ptr, ptr, ptr, ptr, %class.mpbq_manager, %class.mpbqi_manager, %"class.polynomial::manager", %"class.upolynomial::manager", %class.mpq, %class._scoped_numeral, %"class.upolynomial::scoped_numeral_vector", %"class.upolynomial::scoped_numeral_vector", %"class.upolynomial::scoped_numeral_vector", %"class.upolynomial::scoped_numeral_vector", %"class.upolynomial::core_manager::factors", %class._scoped_numeral_vector.3, %class._scoped_numeral_vector.3, %class._scoped_numeral_vector.3, %"class.upolynomial::scoped_numeral_vector", i32, i32, i32, i8, %"struct.polynomial::factor_params", i32, i32, i32, i32, i32, %class.svector.1, %class.svector.1 }
%class.mpbq_manager = type { ptr, %class.mpz, %class.mpz, %class.mpbq, %class.mpz, %class.mpz, %class.mpz, %class.mpbq, %class.mpbq, %class.mpz, %class.mpz, %class.mpz }
%class.mpbq = type <{ %class.mpz, i32, [4 x i8] }>
%class.mpz = type { i32, i8, ptr }
%class.mpbqi_manager = type { %class.basic_interval_manager }
%class.basic_interval_manager = type { ptr, %class.mpbq, %class.mpbq, %class.mpbq }
%"class.polynomial::manager" = type { ptr }
%"class.upolynomial::manager" = type { %"class.upolynomial::core_manager", %class.svector, %class.svector, %class.svector, %class.svector, %class.svector }
%"class.upolynomial::core_manager" = type { ptr, %class.mpzzp_manager, %class.svector, %class.svector, %class.svector, %class.svector, %class.svector, %class.svector, %class.svector, [6 x %class.svector], %class.svector, %class.svector, %class.svector }
%class.mpzzp_manager = type { ptr, i8, %class.mpz, %class.mpz, %class.mpz, i8, %class.mpz, %class.mpz, %class.mpz, %class.mpz }
%class.svector = type { %class.vector }
%class.vector = type { ptr }
%class.mpq = type { %class.mpz, %class.mpz }
%class._scoped_numeral = type { ptr, %class.mpz }
%"class.upolynomial::core_manager::factors" = type { %class.vector.0, %class.svector.1, ptr, %class.mpz, i32, i32 }
%class.vector.0 = type { ptr }
%class._scoped_numeral_vector.3 = type { %class.svector.4, ptr }
%class.svector.4 = type { %class.vector.5 }
%class.vector.5 = type { ptr }
%"class.upolynomial::scoped_numeral_vector" = type { %class._scoped_numeral_vector }
%class._scoped_numeral_vector = type { %class.svector, ptr }
%"struct.polynomial::factor_params" = type { i32, i32, i32 }
%class.svector.1 = type { %class.vector.2 }
%class.vector.2 = type { ptr }
%class.obj_ref = type { ptr, ptr }

; Function Attrs: mustprogress nounwind uwtable
define linkonce_odr hidden noundef ptr @_ZNK7obj_refIN10polynomial10polynomialENS0_7managerEEcvPS1_Ev(ptr noundef nonnull align 8 dereferenceable(16) %0) #5 comdat align 2 {
  %2 = alloca ptr, align 8
  store ptr %0, ptr %2, align 8, !tbaa !88
  %3 = load ptr, ptr %2, align 8
  %4 = getelementptr inbounds nuw %class.obj_ref, ptr %3, i32 0, i32 0
  %5 = load ptr, ptr %4, align 8, !tbaa !223
  ret ptr %5
}

; Function Attrs: mustprogress nounwind uwtable
define linkonce_odr hidden noundef nonnull align 8 dereferenceable(8) ptr @_ZNK7obj_refIN10polynomial10polynomialENS0_7managerEE1mEv(ptr noundef nonnull align 8 dereferenceable(16) %0) #5 comdat align 2 {
  %2 = alloca ptr, align 8
  store ptr %0, ptr %2, align 8, !tbaa !88
  %3 = load ptr, ptr %2, align 8
  %4 = getelementptr inbounds nuw %class.obj_ref, ptr %3, i32 0, i32 1
  %5 = load ptr, ptr %4, align 8, !tbaa !220
  ret ptr %5
}

; Function Attrs: mustprogress nounwind uwtable
define linkonce_odr hidden noundef nonnull align 8 dereferenceable(312) ptr @_ZN17algebraic_numbers7manager3imp3upmEv(ptr noundef nonnull align 8 dereferenceable(936) %0) #5 comdat align 2 {
  %2 = alloca ptr, align 8
  store ptr %0, ptr %2, align 8, !tbaa !24
  %3 = load ptr, ptr %2, align 8
  %4 = getelementptr inbounds nuw %"struct.algebraic_numbers::manager::imp", ptr %3, i32 0, i32 7
  ret ptr %4
}

; Function Attrs: inlinehint mustprogress uwtable
define linkonce_odr hidden noundef zeroext i1 @_Z7is_zeroRK7obj_refIN10polynomial10polynomialENS0_7managerEE(ptr noundef nonnull align 8 dereferenceable(16) %0) #9 comdat {
  %2 = alloca ptr, align 8
  store ptr %0, ptr %2, align 8, !tbaa !88
  %3 = load ptr, ptr %2, align 8, !tbaa !88
  %4 = call noundef nonnull align 8 dereferenceable(8) ptr @_ZNK7obj_refIN10polynomial10polynomialENS0_7managerEE1mEv(ptr noundef nonnull align 8 dereferenceable(16) %3)
  %5 = load ptr, ptr %2, align 8, !tbaa !88
  %6 = call noundef ptr @_ZNK7obj_refIN10polynomial10polynomialENS0_7managerEEcvPS1_Ev(ptr noundef nonnull align 8 dereferenceable(16) %5)
  %7 = call noundef zeroext i1 @_ZN10polynomial7manager7is_zeroEPKNS_10polynomialE(ptr noundef %6)
  ret i1 %7
}

; Function Attrs: mustprogress uwtable
define linkonce_odr hidden void @_ZN17algebraic_numbers7manager3imp13isolate_rootsERK7obj_refIN10polynomial10polynomialENS3_7managerEER7svectorINS_4anumEjE(ptr noundef nonnull align 8 dereferenceable(936) %0, ptr noundef nonnull align 8 dereferenceable(16) %1, ptr noundef nonnull align 8 dereferenceable(8) %2) #4 comdat align 2 {
  %4 = alloca ptr, align 8
  %5 = alloca ptr, align 8
  %6 = alloca ptr, align 8
  %7 = alloca ptr, align 8
  store ptr %0, ptr %4, align 8, !tbaa !24
  store ptr %1, ptr %5, align 8, !tbaa !88
  store ptr %2, ptr %6, align 8, !tbaa !90
  %8 = load ptr, ptr %4, align 8
  %9 = load ptr, ptr %5, align 8, !tbaa !88
  %10 = call noundef zeroext i1 @_Z7is_zeroRK7obj_refIN10polynomial10polynomialENS0_7managerEE(ptr noundef nonnull align 8 dereferenceable(16) %9)
  br i1 %10, label %11, label %12

11:                                               ; preds = %3
  br label %19

12:                                               ; preds = %3
  call void @llvm.lifetime.start.p0(i64 8, ptr %7) #3
  %13 = getelementptr inbounds nuw %"struct.algebraic_numbers::manager::imp", ptr %8, i32 0, i32 10
  store ptr %13, ptr %7, align 8, !tbaa !92
  %14 = call noundef nonnull align 8 dereferenceable(312) ptr @_ZN17algebraic_numbers7manager3imp3upmEv(ptr noundef nonnull align 8 dereferenceable(936) %8)
  %15 = load ptr, ptr %5, align 8, !tbaa !88
  %16 = load ptr, ptr %7, align 8, !tbaa !92
  call void @_ZN11upolynomial12core_manager17to_numeral_vectorI7obj_refIN10polynomial10polynomialENS3_7managerEEEEvRKT_R7svectorI3mpzjE(ptr noundef nonnull align 8 dereferenceable(272) %14, ptr noundef nonnull align 8 dereferenceable(16) %15, ptr noundef nonnull align 8 dereferenceable(8) %16)
  %17 = load ptr, ptr %7, align 8, !tbaa !92
  %18 = load ptr, ptr %6, align 8, !tbaa !90
  call void @_ZN17algebraic_numbers7manager3imp13isolate_rootsERKN11upolynomial21scoped_numeral_vectorER7svectorINS_4anumEjE(ptr noundef nonnull align 8 dereferenceable(936) %8, ptr noundef nonnull align 8 dereferenceable(16) %17, ptr noundef nonnull align 8 dereferenceable(8) %18)
  call void @llvm.lifetime.end.p0(i64 8, ptr %7) #3
  br label %19

19:                                               ; preds = %12, %11
  ret void
}

; Function Attrs: mustprogress uwtable
define hidden void @_ZN17algebraic_numbers7manager13isolate_rootsERK7obj_refIN10polynomial10polynomialENS2_7managerEER7svectorINS_4anumEjE(ptr noundef nonnull align 8 dereferenceable(17) %0, ptr noundef nonnull align 8 dereferenceable(16) %1, ptr noundef nonnull align 8 dereferenceable(8) %2) #4 align 2 {
  %4 = alloca ptr, align 8
  %5 = alloca ptr, align 8
  %6 = alloca ptr, align 8
  store ptr %0, ptr %4, align 8, !tbaa !8
  store ptr %1, ptr %5, align 8, !tbaa !88
  store ptr %2, ptr %6, align 8, !tbaa !90
  %7 = load ptr, ptr %4, align 8
  %8 = getelementptr inbounds nuw %"class.algebraic_numbers::manager", ptr %7, i32 0, i32 0
  %9 = load ptr, ptr %8, align 8, !tbaa !23
  %10 = load ptr, ptr %5, align 8, !tbaa !88
  %11 = load ptr, ptr %6, align 8, !tbaa !90
  call void @_ZN17algebraic_numbers7manager3imp13isolate_rootsERK7obj_refIN10polynomial10polynomialENS3_7managerEER7svectorINS_4anumEjE(ptr noundef nonnull align 8 dereferenceable(936) %9, ptr noundef nonnull align 8 dereferenceable(16) %10, ptr noundef nonnull align 8 dereferenceable(8) %11)
  ret void
}