; Function Attrs: mustprogress uwtable
define hidden void @_ZN17algebraic_numbers7manager13isolate_rootsERK7obj_refIN10polynomial10polynomialENS2_7managerEER7svectorINS_4anumEjE(ptr noundef nonnull readonly align 8 captures(none) dereferenceable(17) %0, ptr noundef nonnull align 8 dereferenceable(16) %1, ptr noundef nonnull align 8 dereferenceable(8) %2) local_unnamed_addr #3 align 2 {
  %4 = load ptr, ptr %0, align 8, !tbaa !12
  %5 = load ptr, ptr %1, align 8, !tbaa !90
  %6 = tail call noundef zeroext i1 @_ZN10polynomial7manager7is_zeroEPKNS_10polynomialE(ptr noundef %5)
  br i1 %6, label %_ZN17algebraic_numbers7manager3imp13isolate_rootsERK7obj_refIN10polynomial10polynomialENS3_7managerEER7svectorINS_4anumEjE.exit, label %7

7:                                                ; preds = %3
  %8 = getelementptr inbounds nuw i8, ptr %4, i64 696
  %9 = getelementptr inbounds nuw i8, ptr %4, i64 328
  tail call void @_ZN11upolynomial12core_manager17to_numeral_vectorI7obj_refIN10polynomial10polynomialENS3_7managerEEEEvRKT_R7svectorI3mpzjE(ptr noundef nonnull align 8 dereferenceable(272) %9, ptr noundef nonnull align 8 dereferenceable(16) %1, ptr noundef nonnull align 8 dereferenceable(8) %8)
  tail call void @_ZN17algebraic_numbers7manager3imp13isolate_rootsERKN11upolynomial21scoped_numeral_vectorER7svectorINS_4anumEjE(ptr noundef nonnull align 8 dereferenceable(936) %4, ptr noundef nonnull align 8 dereferenceable(16) %8, ptr noundef nonnull align 8 dereferenceable(8) %2)
  br label %_ZN17algebraic_numbers7manager3imp13isolate_rootsERK7obj_refIN10polynomial10polynomialENS3_7managerEER7svectorINS_4anumEjE.exit

_ZN17algebraic_numbers7manager3imp13isolate_rootsERK7obj_refIN10polynomial10polynomialENS3_7managerEER7svectorINS_4anumEjE.exit: ; preds = %3, %7
  ret void
}